target datalayout = "e-m:e-p270:32:32-p271:32:32-p272:64:64-i64:64-i128:128-f80:128-n8:16:32:64-S128"
target triple = "x86_64-pc-linux-gnu"

%struct._typeobject = type { %struct.PyVarObject, ptr, i64, i64, ptr, i64, ptr, ptr, ptr, ptr, ptr, ptr, ptr, ptr, ptr, ptr, ptr, ptr, ptr, i64, ptr, ptr, ptr, ptr, i64, ptr, ptr, ptr, ptr, ptr, ptr, ptr, ptr, ptr, i64, ptr, ptr, ptr, ptr, ptr, ptr, ptr, ptr, ptr, ptr, ptr, i32, ptr, ptr, i8, i16 }
%struct.PyVarObject = type { %struct._object, i64 }
%struct._object = type { %union.anon, ptr }
%union.anon = type { i64 }
%struct._longobject = type { %struct._object, %struct._PyLongValue }
%struct._PyLongValue = type { i64, [1 x i32] }
%struct.anon = type { i32, i32 }

@_Py_FalseStruct = external global %struct._longobject, align 8
@_Py_TrueStruct = external global %struct._longobject, align 8
@PyExc_StopIteration = external global ptr, align 8

; Function Attrs: alwaysinline nounwind uwtable
define internal i32 @_Py_IsImmortal(ptr noundef %0) #3 {
  %2 = alloca ptr, align 8
  store ptr %0, ptr %2, align 8, !tbaa !4
  %3 = load ptr, ptr %2, align 8, !tbaa !4
  %4 = getelementptr inbounds nuw %struct._object, ptr %3, i32 0, i32 0
  %5 = getelementptr inbounds nuw %struct.anon, ptr %4, i32 0, i32 0
  %6 = load i32, ptr %5, align 8, !tbaa !74
  %7 = icmp slt i32 %6, 0
  %8 = zext i1 %7 to i32
  ret i32 %8
}

; Function Attrs: alwaysinline nounwind uwtable
define internal void @Py_DECREF(ptr noundef %0) #3 {
  %2 = alloca ptr, align 8
  store ptr %0, ptr %2, align 8, !tbaa !4
  %3 = load ptr, ptr %2, align 8, !tbaa !4
  %4 = call i32 @_Py_IsImmortal(ptr noundef %3)
  %5 = icmp ne i32 %4, 0
  br i1 %5, label %6, label %7

6:                                                ; preds = %1
  br label %16

7:                                                ; preds = %1
  %8 = load ptr, ptr %2, align 8, !tbaa !4
  %9 = getelementptr inbounds nuw %struct._object, ptr %8, i32 0, i32 0
  %10 = getelementptr inbounds nuw %struct.anon, ptr %9, i32 0, i32 0
  %11 = load i32, ptr %10, align 8, !tbaa !74
  %12 = add i32 %11, -1
  store i32 %12, ptr %10, align 8, !tbaa !74
  %13 = icmp eq i32 %12, 0
  br i1 %13, label %14, label %16

14:                                               ; preds = %7
  %15 = load ptr, ptr %2, align 8, !tbaa !4
  call void @_Py_Dealloc(ptr noundef %15)
  br label %16

16:                                               ; preds = %6, %14, %7
  ret void
}

; Function Attrs: inlinehint nounwind uwtable
define internal ptr @_Py_TYPE(ptr noundef %0) #4 {
  %2 = alloca ptr, align 8
  store ptr %0, ptr %2, align 8, !tbaa !4
  %3 = load ptr, ptr %2, align 8, !tbaa !4
  %4 = getelementptr inbounds nuw %struct._object, ptr %3, i32 0, i32 1
  %5 = load ptr, ptr %4, align 8, !tbaa !75
  ret ptr %5
}

; Function Attrs: nounwind uwtable
define internal ptr @builtin_all(ptr noundef %0, ptr noundef %1) #0 {
  %3 = alloca ptr, align 8
  %4 = alloca ptr, align 8
  %5 = alloca ptr, align 8
  %6 = alloca ptr, align 8
  %7 = alloca ptr, align 8
  %8 = alloca ptr, align 8
  %9 = alloca i32, align 4
  %10 = alloca i32, align 4
  store ptr %0, ptr %4, align 8, !tbaa !4
  store ptr %1, ptr %5, align 8, !tbaa !4
  call void @llvm.lifetime.start.p0(i64 8, ptr %6) #9
  call void @llvm.lifetime.start.p0(i64 8, ptr %7) #9
  call void @llvm.lifetime.start.p0(i64 8, ptr %8) #9
  call void @llvm.lifetime.start.p0(i64 4, ptr %9) #9
  %11 = load ptr, ptr %5, align 8, !tbaa !4
  %12 = call ptr @PyObject_GetIter(ptr noundef %11)
  store ptr %12, ptr %6, align 8, !tbaa !4
  %13 = load ptr, ptr %6, align 8, !tbaa !4
  %14 = icmp eq ptr %13, null
  br i1 %14, label %15, label %16

15:                                               ; preds = %2
  store ptr null, ptr %3, align 8
  store i32 1, ptr %10, align 4
  br label %54

16:                                               ; preds = %2
  %17 = load ptr, ptr %6, align 8, !tbaa !4
  %18 = call ptr @_Py_TYPE(ptr noundef %17)
  %19 = getelementptr inbounds nuw %struct._typeobject, ptr %18, i32 0, i32 26
  %20 = load ptr, ptr %19, align 8, !tbaa !39
  store ptr %20, ptr %8, align 8, !tbaa !9
  br label %21

21:                                               ; preds = %41, %16
  %22 = load ptr, ptr %8, align 8, !tbaa !9
  %23 = load ptr, ptr %6, align 8, !tbaa !4
  %24 = call ptr %22(ptr noundef %23)
  store ptr %24, ptr %7, align 8, !tbaa !4
  %25 = load ptr, ptr %7, align 8, !tbaa !4
  %26 = icmp eq ptr %25, null
  br i1 %26, label %27, label %28

27:                                               ; preds = %21
  br label %42

28:                                               ; preds = %21
  %29 = load ptr, ptr %7, align 8, !tbaa !4
  %30 = call i32 @PyObject_IsTrue(ptr noundef %29)
  store i32 %30, ptr %9, align 4, !tbaa !38
  %31 = load ptr, ptr %7, align 8, !tbaa !4
  call void @Py_DECREF(ptr noundef %31)
  %32 = load i32, ptr %9, align 4, !tbaa !38
  %33 = icmp slt i32 %32, 0
  br i1 %33, label %34, label %36

34:                                               ; preds = %28
  %35 = load ptr, ptr %6, align 8, !tbaa !4
  call void @Py_DECREF(ptr noundef %35)
  store ptr null, ptr %3, align 8
  store i32 1, ptr %10, align 4
  br label %54

36:                                               ; preds = %28
  %37 = load i32, ptr %9, align 4, !tbaa !38
  %38 = icmp eq i32 %37, 0
  br i1 %38, label %39, label %41

39:                                               ; preds = %36
  %40 = load ptr, ptr %6, align 8, !tbaa !4
  call void @Py_DECREF(ptr noundef %40)
  store ptr @_Py_FalseStruct, ptr %3, align 8
  store i32 1, ptr %10, align 4
  br label %54

41:                                               ; preds = %36
  br label %21

42:                                               ; preds = %27
  %43 = load ptr, ptr %6, align 8, !tbaa !4
  call void @Py_DECREF(ptr noundef %43)
  %44 = call ptr @PyErr_Occurred()
  %45 = icmp ne ptr %44, null
  br i1 %45, label %46, label %53

46:                                               ; preds = %42
  %47 = load ptr, ptr @PyExc_StopIteration, align 8, !tbaa !4
  %48 = call i32 @PyErr_ExceptionMatches(ptr noundef %47)
  %49 = icmp ne i32 %48, 0
  br i1 %49, label %50, label %51

50:                                               ; preds = %46
  call void @PyErr_Clear()
  br label %52

51:                                               ; preds = %46
  store ptr null, ptr %3, align 8
  store i32 1, ptr %10, align 4
  br label %54

52:                                               ; preds = %50
  br label %53

53:                                               ; preds = %52, %42
  store ptr @_Py_TrueStruct, ptr %3, align 8
  store i32 1, ptr %10, align 4
  br label %54

54:                                               ; preds = %53, %51, %39, %34, %15
  call void @llvm.lifetime.end.p0(i64 4, ptr %9) #9
  call void @llvm.lifetime.end.p0(i64 8, ptr %8) #9
  call void @llvm.lifetime.end.p0(i64 8, ptr %7) #9
  call void @llvm.lifetime.end.p0(i64 8, ptr %6) #9
  %55 = load ptr, ptr %3, align 8
  ret ptr %55
}