; Function Attrs: nounwind uwtable
define internal noundef ptr @builtin_all(ptr readnone captures(none) %0, ptr noundef %1) #0 {
  %3 = tail call ptr @PyObject_GetIter(ptr noundef %1) #9
  %4 = icmp eq ptr %3, null
  br i1 %4, label %Py_DECREF.exit20, label %5

5:                                                ; preds = %2
  %6 = getelementptr i8, ptr %3, i64 8
  %.val = load ptr, ptr %6, align 8, !tbaa !20
  %7 = getelementptr inbounds nuw i8, ptr %.val, i64 224
  %8 = load ptr, ptr %7, align 8, !tbaa !37
  br label %9

9:                                                ; preds = %26, %5
  %10 = tail call ptr %8(ptr noundef nonnull %3) #9
  %11 = icmp eq ptr %10, null
  br i1 %11, label %34, label %12

12:                                               ; preds = %9
  %13 = tail call i32 @PyObject_IsTrue(ptr noundef nonnull %10) #9
  %14 = load i32, ptr %10, align 8, !tbaa !33
  %.not.i21 = icmp sgt i32 %14, -1
  br i1 %.not.i21, label %15, label %Py_DECREF.exit22

15:                                               ; preds = %12
  %16 = add nsw i32 %14, -1
  store i32 %16, ptr %10, align 8, !tbaa !33
  %17 = icmp eq i32 %16, 0
  br i1 %17, label %18, label %Py_DECREF.exit22

18:                                               ; preds = %15
  tail call void @_Py_Dealloc(ptr noundef nonnull %10) #9
  br label %Py_DECREF.exit22

Py_DECREF.exit22:                                 ; preds = %12, %15, %18
  %19 = icmp slt i32 %13, 0
  br i1 %19, label %20, label %26

20:                                               ; preds = %Py_DECREF.exit22
  %21 = load i32, ptr %3, align 8, !tbaa !33
  %.not.i19 = icmp sgt i32 %21, -1
  br i1 %.not.i19, label %22, label %Py_DECREF.exit20

22:                                               ; preds = %20
  %23 = add nsw i32 %21, -1
  store i32 %23, ptr %3, align 8, !tbaa !33
  %24 = icmp eq i32 %23, 0
  br i1 %24, label %25, label %Py_DECREF.exit20

25:                                               ; preds = %22
  tail call void @_Py_Dealloc(ptr noundef nonnull %3) #9
  br label %Py_DECREF.exit20

26:                                               ; preds = %Py_DECREF.exit22
  %27 = icmp eq i32 %13, 0
  br i1 %27, label %28, label %9

28:                                               ; preds = %26
  %29 = load i32, ptr %3, align 8, !tbaa !33
  %.not.i17 = icmp sgt i32 %29, -1
  br i1 %.not.i17, label %30, label %Py_DECREF.exit20

30:                                               ; preds = %28
  %31 = add nsw i32 %29, -1
  store i32 %31, ptr %3, align 8, !tbaa !33
  %32 = icmp eq i32 %31, 0
  br i1 %32, label %33, label %Py_DECREF.exit20

33:                                               ; preds = %30
  tail call void @_Py_Dealloc(ptr noundef nonnull %3) #9
  br label %Py_DECREF.exit20

34:                                               ; preds = %9
  %35 = load i32, ptr %3, align 8, !tbaa !33
  %.not.i = icmp sgt i32 %35, -1
  br i1 %.not.i, label %36, label %Py_DECREF.exit

36:                                               ; preds = %34
  %37 = add nsw i32 %35, -1
  store i32 %37, ptr %3, align 8, !tbaa !33
  %38 = icmp eq i32 %37, 0
  br i1 %38, label %39, label %Py_DECREF.exit

39:                                               ; preds = %36
  tail call void @_Py_Dealloc(ptr noundef nonnull %3) #9
  br label %Py_DECREF.exit

Py_DECREF.exit:                                   ; preds = %34, %36, %39
  %40 = tail call ptr @PyErr_Occurred() #9
  %.not = icmp eq ptr %40, null
  br i1 %.not, label %Py_DECREF.exit20, label %41

41:                                               ; preds = %Py_DECREF.exit
  %42 = load ptr, ptr @PyExc_StopIteration, align 8, !tbaa !39
  %43 = tail call i32 @PyErr_ExceptionMatches(ptr noundef %42) #9
  %.not16 = icmp eq i32 %43, 0
  br i1 %.not16, label %Py_DECREF.exit20, label %44

44:                                               ; preds = %41
  tail call void @PyErr_Clear() #9
  br label %Py_DECREF.exit20

Py_DECREF.exit20:                                 ; preds = %33, %30, %28, %25, %22, %20, %Py_DECREF.exit, %44, %41, %2
  %.0 = phi ptr [ null, %2 ], [ null, %41 ], [ @_Py_TrueStruct, %44 ], [ @_Py_TrueStruct, %Py_DECREF.exit ], [ null, %20 ], [ null, %22 ], [ null, %25 ], [ @_Py_FalseStruct, %28 ], [ @_Py_FalseStruct, %30 ], [ @_Py_FalseStruct, %33 ]
  ret ptr %.0
}